; ModuleID = '6/3885.c'
source_filename = "6/3885.c"
target datalayout = "e-m:e-p270:32:32-p271:32:32-p272:64:64-i64:64-f80:128-n8:16:32:64-S128"
target triple = "x86_64-pc-linux-gnu"

@.str = private unnamed_addr constant [3 x i8] c"%d\00", align 1
@.str.1 = private unnamed_addr constant [6 x i8] c"%d %d\00", align 1
@.str.2 = private unnamed_addr constant [4 x i8] c"%d\0A\00", align 1

; Function Attrs: noinline nounwind uwtable
define dso_local i32 @main() #0 {
  %1 = alloca i32, align 4
  %2 = alloca i32, align 4
  %3 = alloca i32, align 4
  %4 = alloca i32, align 4
  %5 = alloca i32, align 4
  %6 = alloca i32, align 4
  %7 = alloca i32, align 4
  %8 = alloca [100 x [100 x i32]], align 16
  store i32 0, i32* %1, align 4
  %9 = call i32 (i8*, ...) @__isoc99_scanf(i8* getelementptr inbounds ([3 x i8], [3 x i8]* @.str, i64 0, i64 0), i32* %2)
  br label %10

10:                                               ; preds = %85, %0
  %11 = load i32, i32* %2, align 4
  %12 = add nsw i32 %11, -1
  store i32 %12, i32* %2, align 4
  %13 = icmp ne i32 %11, 0
  br i1 %13, label %14, label %88

14:                                               ; preds = %10
  store i32 0, i32* %5, align 4
  %15 = call i32 (i8*, ...) @__isoc99_scanf(i8* getelementptr inbounds ([6 x i8], [6 x i8]* @.str.1, i64 0, i64 0), i32* %3, i32* %4)
  store i32 0, i32* %6, align 4
  br label %16

16:                                               ; preds = %37, %14
  %17 = load i32, i32* %6, align 4
  %18 = load i32, i32* %3, align 4
  %19 = icmp slt i32 %17, %18
  br i1 %19, label %20, label %40

20:                                               ; preds = %16
  store i32 0, i32* %7, align 4
  br label %21

21:                                               ; preds = %33, %20
  %22 = load i32, i32* %7, align 4
  %23 = load i32, i32* %4, align 4
  %24 = icmp slt i32 %22, %23
  br i1 %24, label %25, label %36

25:                                               ; preds = %21
  %26 = load i32, i32* %6, align 4
  %27 = sext i32 %26 to i64
  %28 = getelementptr inbounds [100 x [100 x i32]], [100 x [100 x i32]]* %8, i64 0, i64 %27
  %29 = load i32, i32* %7, align 4
  %30 = sext i32 %29 to i64
  %31 = getelementptr inbounds [100 x i32], [100 x i32]* %28, i64 0, i64 %30
  %32 = call i32 (i8*, ...) @__isoc99_scanf(i8* getelementptr inbounds ([3 x i8], [3 x i8]* @.str, i64 0, i64 0), i32* %31)
  br label %33

33:                                               ; preds = %25
  %34 = load i32, i32* %7, align 4
  %35 = add nsw i32 %34, 1
  store i32 %35, i32* %7, align 4
  br label %21

36:                                               ; preds = %21
  br label %37

37:                                               ; preds = %36
  %38 = load i32, i32* %6, align 4
  %39 = add nsw i32 %38, 1
  store i32 %39, i32* %6, align 4
  br label %16

40:                                               ; preds = %16
  store i32 0, i32* %6, align 4
  br label %41

41:                                               ; preds = %82, %40
  %42 = load i32, i32* %6, align 4
  %43 = load i32, i32* %3, align 4
  %44 = icmp slt i32 %42, %43
  br i1 %44, label %45, label %85

45:                                               ; preds = %41
  store i32 0, i32* %7, align 4
  br label %46

46:                                               ; preds = %78, %45
  %47 = load i32, i32* %7, align 4
  %48 = load i32, i32* %4, align 4
  %49 = icmp slt i32 %47, %48
  br i1 %49, label %50, label %81

50:                                               ; preds = %46
  %51 = load i32, i32* %6, align 4
  %52 = icmp eq i32 %51, 0
  br i1 %52, label %66, label %53

53:                                               ; preds = %50
  %54 = load i32, i32* %6, align 4
  %55 = load i32, i32* %3, align 4
  %56 = sub nsw i32 %55, 1
  %57 = icmp eq i32 %54, %56
  br i1 %57, label %66, label %58

58:                                               ; preds = %53
  %59 = load i32, i32* %7, align 4
  %60 = icmp eq i32 %59, 0
  br i1 %60, label %66, label %61

61:                                               ; preds = %58
  %62 = load i32, i32* %7, align 4
  %63 = load i32, i32* %4, align 4
  %64 = sub nsw i32 %63, 1
  %65 = icmp eq i32 %62, %64
  br i1 %65, label %66, label %76

66:                                               ; preds = %61, %58, %53, %50
  %67 = load i32, i32* %5, align 4
  %68 = load i32, i32* %6, align 4
  %69 = sext i32 %68 to i64
  %70 = getelementptr inbounds [100 x [100 x i32]], [100 x [100 x i32]]* %8, i64 0, i64 %69
  %71 = load i32, i32* %7, align 4
  %72 = sext i32 %71 to i64
  %73 = getelementptr inbounds [100 x i32], [100 x i32]* %70, i64 0, i64 %72
  %74 = load i32, i32* %73, align 4
  %75 = add nsw i32 %67, %74
  store i32 %75, i32* %5, align 4
  br label %77

76:                                               ; preds = %61
  br label %78

77:                                               ; preds = %66
  br label %78

78:                                               ; preds = %77, %76
  %79 = load i32, i32* %7, align 4
  %80 = add nsw i32 %79, 1
  store i32 %80, i32* %7, align 4
  br label %46

81:                                               ; preds = %46
  br label %82

82:                                               ; preds = %81
  %83 = load i32, i32* %6, align 4
  %84 = add nsw i32 %83, 1
  store i32 %84, i32* %6, align 4
  br label %41

85:                                               ; preds = %41
  %86 = load i32, i32* %5, align 4
  %87 = call i32 (i8*, ...) @printf(i8* getelementptr inbounds ([4 x i8], [4 x i8]* @.str.2, i64 0, i64 0), i32 %86)
  br label %10

88:                                               ; preds = %10
  ret i32 0
}

declare dso_local i32 @__isoc99_scanf(i8*, ...) #1

declare dso_local i32 @printf(i8*, ...) #1


!llvm.module.flags = !{!0}
!llvm.ident = !{!1}

!0 = !{i32 1, !"wchar_size", i32 4}
!1 = !{!"clang version 10.0.0-4ubuntu1 "}
